target datalayout = "e-m:e-p270:32:32-p271:32:32-p272:64:64-i64:64-i128:128-f80:128-n8:16:32:64-S128"
target triple = "x86_64-pc-linux-gnu"

%struct.mock_srv_ctx = type { ptr, ptr, ptr, ptr, ptr, ptr, ptr, ptr, ptr, ptr, i32, ptr, i32, i32, i32 }

@.str = private unnamed_addr constant [35 x i8] c"../openssl/apps/lib/cmp_mock_srv.c\00", align 1
@__func__.ossl_cmp_mock_srv_set_sendError = private unnamed_addr constant [32 x i8] c"ossl_cmp_mock_srv_set_sendError\00", align 1

; Function Attrs: nounwind uwtable
define dso_local i32 @ossl_cmp_mock_srv_set_sendError(ptr noundef %0, i32 noundef %1) #0 {
  %3 = alloca i32, align 4
  %4 = alloca ptr, align 8
  %5 = alloca i32, align 4
  %6 = alloca ptr, align 8
  %7 = alloca i32, align 4
  store ptr %0, ptr %4, align 8, !tbaa !4
  store i32 %1, ptr %5, align 4, !tbaa !31
  call void @llvm.lifetime.start.p0(i64 8, ptr %6) #5
  %8 = load ptr, ptr %4, align 8, !tbaa !4
  %9 = call ptr @OSSL_CMP_SRV_CTX_get0_custom_ctx(ptr noundef %8)
  store ptr %9, ptr %6, align 8, !tbaa !11
  %10 = load ptr, ptr %6, align 8, !tbaa !11
  %11 = icmp eq ptr %10, null
  br i1 %11, label %12, label %13

12:                                               ; preds = %2
  call void @ERR_new()
  call void @ERR_set_debug(ptr noundef @.str, i32 noundef 182, ptr noundef @__func__.ossl_cmp_mock_srv_set_sendError)
  call void (i32, i32, ptr, ...) @ERR_set_error(i32 noundef 58, i32 noundef 103, ptr noundef null)
  store i32 0, ptr %3, align 4
  store i32 1, ptr %7, align 4
  br label %17

13:                                               ; preds = %2
  %14 = load i32, ptr %5, align 4, !tbaa !31
  %15 = load ptr, ptr %6, align 8, !tbaa !11
  %16 = getelementptr inbounds nuw %struct.mock_srv_ctx, ptr %15, i32 0, i32 10
  store i32 %14, ptr %16, align 8, !tbaa !36
  store i32 1, ptr %3, align 4
  store i32 1, ptr %7, align 4
  br label %17

17:                                               ; preds = %13, %12
  call void @llvm.lifetime.end.p0(i64 8, ptr %6) #5
  %18 = load i32, ptr %3, align 4
  ret i32 %18
}